; Function Attrs: nounwind sspstrong uwtable
define hidden i64 @rb_numeric_quo(i64 noundef %0, i64 noundef %1) #0 {
  %3 = alloca i64, align 8
  store i64 %1, ptr %3, align 8, !tbaa !18
  %4 = icmp eq i64 %0, 0
  %5 = and i64 %0, 7
  %6 = icmp ne i64 %5, 0
  %7 = or i1 %4, %6
  br i1 %7, label %rbimpl_RB_TYPE_P_fastpath.exit.thread, label %rbimpl_RB_TYPE_P_fastpath.exit

rbimpl_RB_TYPE_P_fastpath.exit:                   ; preds = %2
  %8 = inttoptr i64 %0 to ptr
  %9 = load i64, ptr %8, align 8, !tbaa !7
  %10 = and i64 %9, 31
  %11 = icmp eq i64 %10, 14
  br i1 %11, label %12, label %rbimpl_RB_TYPE_P_fastpath.exit.thread

12:                                               ; preds = %rbimpl_RB_TYPE_P_fastpath.exit
  %13 = tail call i64 @rb_complex_div(i64 noundef %0, i64 noundef %1) #17
  br label %28

rbimpl_RB_TYPE_P_fastpath.exit.thread:            ; preds = %2, %rbimpl_RB_TYPE_P_fastpath.exit
  %14 = and i64 %1, 3
  %15 = icmp eq i64 %14, 2
  br i1 %15, label %RB_FLOAT_TYPE_P.exit.thread, label %16

16:                                               ; preds = %rbimpl_RB_TYPE_P_fastpath.exit.thread
  %17 = icmp eq i64 %1, 0
  %18 = and i64 %1, 7
  %19 = icmp ne i64 %18, 0
  %20 = or i1 %17, %19
  br i1 %20, label %RB_FLOAT_TYPE_P.exit.thread9, label %RB_FLOAT_TYPE_P.exit

RB_FLOAT_TYPE_P.exit:                             ; preds = %16
  %21 = inttoptr i64 %1 to ptr
  %22 = load i64, ptr %21, align 8, !tbaa !7
  %23 = and i64 %22, 31
  %24 = icmp eq i64 %23, 4
  br i1 %24, label %RB_FLOAT_TYPE_P.exit.thread, label %RB_FLOAT_TYPE_P.exit.thread9

RB_FLOAT_TYPE_P.exit.thread:                      ; preds = %rbimpl_RB_TYPE_P_fastpath.exit.thread, %RB_FLOAT_TYPE_P.exit
  %25 = call i64 @rb_funcallv(i64 noundef %0, i64 noundef 3601, i32 noundef 1, ptr noundef nonnull %3) #17
  br label %28

RB_FLOAT_TYPE_P.exit.thread9:                     ; preds = %16, %RB_FLOAT_TYPE_P.exit
  %26 = tail call i64 @rb_convert_type(i64 noundef %0, i32 noundef 15, ptr noundef nonnull @.str.2, ptr noundef nonnull @.str.3) #17
  %27 = tail call i64 @rb_rational_div(i64 noundef %26, i64 noundef %1)
  br label %28

28:                                               ; preds = %RB_FLOAT_TYPE_P.exit.thread9, %RB_FLOAT_TYPE_P.exit.thread, %12
  %.0 = phi i64 [ %13, %12 ], [ %25, %RB_FLOAT_TYPE_P.exit.thread ], [ %27, %RB_FLOAT_TYPE_P.exit.thread9 ]
  ret i64 %.0
}